; Function Attrs: nounwind uwtable
define internal noundef i32 @Jac(double %0, ptr noundef readonly captures(none) %1, ptr readnone captures(none) %2, ptr noundef %3, ptr readnone captures(none) %4, ptr readnone captures(none) %5, ptr readnone captures(none) %6, ptr readnone captures(none) %7) #0 {
  %9 = load ptr, ptr %1, align 8, !tbaa !12
  %10 = getelementptr inbounds nuw i8, ptr %9, i64 16
  %11 = load ptr, ptr %10, align 8, !tbaa !15
  %12 = getelementptr inbounds nuw i8, ptr %11, i64 8
  %13 = load double, ptr %12, align 8, !tbaa !20
  %14 = getelementptr inbounds nuw i8, ptr %11, i64 16
  %15 = load double, ptr %14, align 8, !tbaa !20
  %16 = tail call i32 @SUNMatZero(ptr noundef %3) #8
  %17 = load ptr, ptr %3, align 8, !tbaa !23
  %18 = getelementptr inbounds nuw i8, ptr %17, i64 32
  %19 = load ptr, ptr %18, align 8, !tbaa !26
  %20 = load ptr, ptr %19, align 8, !tbaa !29
  store double -4.000000e-02, ptr %20, align 8, !tbaa !20
  %21 = fmul double %15, 1.000000e+04
  %22 = getelementptr inbounds nuw i8, ptr %19, i64 8
  %23 = load ptr, ptr %22, align 8, !tbaa !29
  store double %21, ptr %23, align 8, !tbaa !20
  %24 = fmul double %13, 1.000000e+04
  %25 = getelementptr inbounds nuw i8, ptr %19, i64 16
  %26 = load ptr, ptr %25, align 8, !tbaa !29
  store double %24, ptr %26, align 8, !tbaa !20
  %27 = getelementptr inbounds nuw i8, ptr %20, i64 8
  store double 4.000000e-02, ptr %27, align 8, !tbaa !20
  %28 = fmul double %13, 6.000000e+07
  %29 = fneg double %28
  %30 = tail call double @llvm.fmuladd.f64(double %15, double -1.000000e+04, double %29)
  %31 = getelementptr inbounds nuw i8, ptr %23, i64 8
  store double %30, ptr %31, align 8, !tbaa !20
  %32 = fmul double %13, -1.000000e+04
  %33 = getelementptr inbounds nuw i8, ptr %26, i64 8
  store double %32, ptr %33, align 8, !tbaa !20
  %34 = getelementptr inbounds nuw i8, ptr %23, i64 16
  store double %28, ptr %34, align 8, !tbaa !20
  ret i32 0
}